; Function Attrs: mustprogress uwtable
define noundef i64 @_ZN3net25QuicStreamSequencerBuffer19FlushBufferedFramesEv(ptr noundef nonnull align 8 dereferenceable(120) %0) local_unnamed_addr #2 align 2 {
  %2 = getelementptr inbounds nuw i8, ptr %0, i64 16
  %3 = load i64, ptr %2, align 8, !tbaa !40
  %4 = getelementptr inbounds nuw i8, ptr %0, i64 32
  %5 = load ptr, ptr %4, align 8, !tbaa !41
  %6 = getelementptr inbounds nuw i8, ptr %5, i64 16
  %7 = load i64, ptr %6, align 8, !tbaa !3
  store i64 %7, ptr %2, align 8, !tbaa !40
  tail call void @_ZN3net25QuicStreamSequencerBuffer5ClearEv(ptr noundef nonnull align 8 dereferenceable(120) %0)
  %8 = load i64, ptr %2, align 8, !tbaa !40
  %9 = sub i64 %8, %3
  ret i64 %9
}